target datalayout = "e-m:e-p270:32:32-p271:32:32-p272:64:64-i64:64-i128:128-f80:128-n8:16:32:64-S128"
target triple = "x86_64-pc-linux-gnu"

@.str.50 = private unnamed_addr constant [2 x i8] c"L\00", align 1

; Function Attrs: nounwind uwtable
define internal ptr @Abc_NtkCreateBo(ptr noundef %0) #0 {
  %2 = alloca ptr, align 8
  store ptr %0, ptr %2, align 8
  %3 = load ptr, ptr %2, align 8
  %4 = call ptr @Abc_NtkCreateObj(ptr noundef %3, i32 noundef 5)
  ret ptr %4
}

; Function Attrs: nounwind uwtable
define internal ptr @Abc_NtkCreateLatch(ptr noundef %0) #0 {
  %2 = alloca ptr, align 8
  store ptr %0, ptr %2, align 8
  %3 = load ptr, ptr %2, align 8
  %4 = call ptr @Abc_NtkCreateObj(ptr noundef %3, i32 noundef 8)
  ret ptr %4
}

; Function Attrs: nounwind uwtable
define internal ptr @Abc_NtkCreateBi(ptr noundef %0) #0 {
  %2 = alloca ptr, align 8
  store ptr %0, ptr %2, align 8
  %3 = load ptr, ptr %2, align 8
  %4 = call ptr @Abc_NtkCreateObj(ptr noundef %3, i32 noundef 4)
  ret ptr %4
}

; Function Attrs: nounwind uwtable
define ptr @Io_ReadCreateLatch(ptr noundef %0, ptr noundef %1, ptr noundef %2) #0 {
  %4 = alloca ptr, align 8
  %5 = alloca ptr, align 8
  %6 = alloca ptr, align 8
  %7 = alloca ptr, align 8
  %8 = alloca ptr, align 8
  %9 = alloca ptr, align 8
  store ptr %0, ptr %4, align 8
  store ptr %1, ptr %5, align 8
  store ptr %2, ptr %6, align 8
  %10 = load ptr, ptr %4, align 8
  %11 = load ptr, ptr %5, align 8
  %12 = call ptr @Abc_NtkFindOrCreateNet(ptr noundef %10, ptr noundef %11)
  store ptr %12, ptr %9, align 8
  %13 = load ptr, ptr %4, align 8
  %14 = call ptr @Abc_NtkCreateBi(ptr noundef %13)
  store ptr %14, ptr %8, align 8
  %15 = load ptr, ptr %8, align 8
  %16 = load ptr, ptr %9, align 8
  call void @Abc_ObjAddFanin(ptr noundef %15, ptr noundef %16)
  %17 = load ptr, ptr %4, align 8
  %18 = call ptr @Abc_NtkCreateLatch(ptr noundef %17)
  store ptr %18, ptr %7, align 8
  %19 = load ptr, ptr %7, align 8
  %20 = load ptr, ptr %8, align 8
  call void @Abc_ObjAddFanin(ptr noundef %19, ptr noundef %20)
  %21 = load ptr, ptr %4, align 8
  %22 = call ptr @Abc_NtkCreateBo(ptr noundef %21)
  store ptr %22, ptr %8, align 8
  %23 = load ptr, ptr %8, align 8
  %24 = load ptr, ptr %7, align 8
  call void @Abc_ObjAddFanin(ptr noundef %23, ptr noundef %24)
  %25 = load ptr, ptr %4, align 8
  %26 = load ptr, ptr %6, align 8
  %27 = call ptr @Abc_NtkFindOrCreateNet(ptr noundef %25, ptr noundef %26)
  store ptr %27, ptr %9, align 8
  %28 = load ptr, ptr %9, align 8
  %29 = load ptr, ptr %8, align 8
  call void @Abc_ObjAddFanin(ptr noundef %28, ptr noundef %29)
  %30 = load ptr, ptr %7, align 8
  %31 = load ptr, ptr %6, align 8
  %32 = call ptr @Abc_ObjAssignName(ptr noundef %30, ptr noundef %31, ptr noundef @.str.50)
  %33 = load ptr, ptr %7, align 8
  ret ptr %33
}