; Function Attrs: nounwind uwtable
define noundef ptr @Io_ReadCreateLatch(ptr noundef %0, ptr noundef %1, ptr noundef %2) local_unnamed_addr #0 {
  %4 = tail call ptr @Abc_NtkFindOrCreateNet(ptr noundef %0, ptr noundef %1) #14
  %5 = tail call ptr @Abc_NtkCreateObj(ptr noundef %0, i32 noundef 4) #14
  tail call void @Abc_ObjAddFanin(ptr noundef %5, ptr noundef %4) #14
  %6 = tail call ptr @Abc_NtkCreateObj(ptr noundef %0, i32 noundef 8) #14
  tail call void @Abc_ObjAddFanin(ptr noundef %6, ptr noundef %5) #14
  %7 = tail call ptr @Abc_NtkCreateObj(ptr noundef %0, i32 noundef 5) #14
  tail call void @Abc_ObjAddFanin(ptr noundef %7, ptr noundef %6) #14
  %8 = tail call ptr @Abc_NtkFindOrCreateNet(ptr noundef %0, ptr noundef %2) #14
  tail call void @Abc_ObjAddFanin(ptr noundef %8, ptr noundef %7) #14
  %9 = tail call ptr @Abc_ObjAssignName(ptr noundef %6, ptr noundef %2, ptr noundef nonnull @.str.50) #14
  ret ptr %6
}